target datalayout = "e-m:e-p270:32:32-p271:32:32-p272:64:64-i64:64-i128:128-f80:128-n8:16:32:64-S128"
target triple = "x86_64-pc-linux-gnu"

@.str.10 = private unnamed_addr constant [8 x i8] c"PALETTE\00", align 1

; Function Attrs: nounwind uwtable
define i32 @H5IM_find_palette(i64 noundef %0) #0 {
  %2 = alloca i64, align 8
  store i64 %0, ptr %2, align 8, !tbaa !3
  %3 = load i64, ptr %2, align 8, !tbaa !3
  %4 = call i32 @H5Aiterate2(i64 noundef %3, i32 noundef 0, i32 noundef 0, ptr noundef null, ptr noundef @find_palette, ptr noundef null)
  ret i32 %4
}

; Function Attrs: nounwind uwtable
define i32 @H5IMget_npalettes(i64 noundef %0, ptr noundef %1, ptr noundef %2) #0 {
  %4 = alloca i32, align 4
  %5 = alloca i64, align 8
  %6 = alloca ptr, align 8
  %7 = alloca ptr, align 8
  %8 = alloca i64, align 8
  %9 = alloca i64, align 8
  %10 = alloca i64, align 8
  %11 = alloca i64, align 8
  %12 = alloca i32, align 4
  %13 = alloca i32, align 4
  %14 = alloca i32, align 4
  store i64 %0, ptr %5, align 8, !tbaa !3
  store ptr %1, ptr %6, align 8, !tbaa !7
  store ptr %2, ptr %7, align 8, !tbaa !17
  call void @llvm.lifetime.start.p0(i64 8, ptr %8) #7
  call void @llvm.lifetime.start.p0(i64 8, ptr %9) #7
  call void @llvm.lifetime.start.p0(i64 8, ptr %10) #7
  call void @llvm.lifetime.start.p0(i64 8, ptr %11) #7
  call void @llvm.lifetime.start.p0(i64 4, ptr %12) #7
  call void @llvm.lifetime.start.p0(i64 4, ptr %13) #7
  %15 = load ptr, ptr %6, align 8, !tbaa !7
  %16 = icmp eq ptr %15, null
  br i1 %16, label %17, label %18

17:                                               ; preds = %3
  store i32 -1, ptr %4, align 4
  store i32 1, ptr %14, align 4
  br label %82

18:                                               ; preds = %3
  %19 = load ptr, ptr %7, align 8, !tbaa !17
  store i64 0, ptr %19, align 8, !tbaa !3
  %20 = load i64, ptr %5, align 8, !tbaa !3
  %21 = load ptr, ptr %6, align 8, !tbaa !7
  %22 = call i64 @H5Dopen2(i64 noundef %20, ptr noundef %21, i64 noundef 0)
  store i64 %22, ptr %8, align 8, !tbaa !3
  %23 = icmp slt i64 %22, 0
  br i1 %23, label %24, label %25

24:                                               ; preds = %18
  store i32 -1, ptr %4, align 4
  store i32 1, ptr %14, align 4
  br label %82

25:                                               ; preds = %18
  %26 = load i64, ptr %8, align 8, !tbaa !3
  %27 = call i32 @H5IM_find_palette(i64 noundef %26)
  store i32 %27, ptr %13, align 4, !tbaa !15
  %28 = load i32, ptr %13, align 4, !tbaa !15
  %29 = icmp eq i32 %28, 1
  br i1 %29, label %30, label %73

30:                                               ; preds = %25
  %31 = load i64, ptr %8, align 8, !tbaa !3
  %32 = call i64 @H5Aopen(i64 noundef %31, ptr noundef @.str.10, i64 noundef 0)
  store i64 %32, ptr %10, align 8, !tbaa !3
  %33 = icmp slt i64 %32, 0
  br i1 %33, label %34, label %35

34:                                               ; preds = %30
  br label %79

35:                                               ; preds = %30
  %36 = load i64, ptr %10, align 8, !tbaa !3
  %37 = call i64 @H5Aget_type(i64 noundef %36)
  store i64 %37, ptr %9, align 8, !tbaa !3
  %38 = icmp slt i64 %37, 0
  br i1 %38, label %39, label %40

39:                                               ; preds = %35
  br label %79

40:                                               ; preds = %35
  %41 = load i64, ptr %9, align 8, !tbaa !3
  %42 = call i32 @H5Tget_class(i64 noundef %41)
  store i32 %42, ptr %12, align 4, !tbaa !15
  %43 = icmp slt i32 %42, 0
  br i1 %43, label %44, label %45

44:                                               ; preds = %40
  br label %79

45:                                               ; preds = %40
  %46 = load i32, ptr %12, align 4, !tbaa !15
  %47 = icmp eq i32 %46, 7
  br i1 %47, label %48, label %62

48:                                               ; preds = %45
  %49 = load i64, ptr %10, align 8, !tbaa !3
  %50 = call i64 @H5Aget_space(i64 noundef %49)
  store i64 %50, ptr %11, align 8, !tbaa !3
  %51 = icmp slt i64 %50, 0
  br i1 %51, label %52, label %53

52:                                               ; preds = %48
  br label %79

53:                                               ; preds = %48
  %54 = load i64, ptr %11, align 8, !tbaa !3
  %55 = call i64 @H5Sget_simple_extent_npoints(i64 noundef %54)
  %56 = load ptr, ptr %7, align 8, !tbaa !17
  store i64 %55, ptr %56, align 8, !tbaa !3
  %57 = load i64, ptr %11, align 8, !tbaa !3
  %58 = call i32 @H5Sclose(i64 noundef %57)
  %59 = icmp slt i32 %58, 0
  br i1 %59, label %60, label %61

60:                                               ; preds = %53
  br label %79

61:                                               ; preds = %53
  br label %62

62:                                               ; preds = %61, %45
  %63 = load i64, ptr %9, align 8, !tbaa !3
  %64 = call i32 @H5Tclose(i64 noundef %63)
  %65 = icmp slt i32 %64, 0
  br i1 %65, label %66, label %67

66:                                               ; preds = %62
  br label %79

67:                                               ; preds = %62
  %68 = load i64, ptr %10, align 8, !tbaa !3
  %69 = call i32 @H5Aclose(i64 noundef %68)
  %70 = icmp slt i32 %69, 0
  br i1 %70, label %71, label %72

71:                                               ; preds = %67
  br label %79

72:                                               ; preds = %67
  br label %73

73:                                               ; preds = %72, %25
  %74 = load i64, ptr %8, align 8, !tbaa !3
  %75 = call i32 @H5Dclose(i64 noundef %74)
  %76 = icmp slt i32 %75, 0
  br i1 %76, label %77, label %78

77:                                               ; preds = %73
  store i32 -1, ptr %4, align 4
  store i32 1, ptr %14, align 4
  br label %82

78:                                               ; preds = %73
  store i32 0, ptr %4, align 4
  store i32 1, ptr %14, align 4
  br label %82

79:                                               ; preds = %71, %66, %60, %52, %44, %39, %34
  %80 = load i64, ptr %8, align 8, !tbaa !3
  %81 = call i32 @H5Dclose(i64 noundef %80)
  store i32 -1, ptr %4, align 4
  store i32 1, ptr %14, align 4
  br label %82

82:                                               ; preds = %79, %78, %77, %24, %17
  call void @llvm.lifetime.end.p0(i64 4, ptr %13) #7
  call void @llvm.lifetime.end.p0(i64 4, ptr %12) #7
  call void @llvm.lifetime.end.p0(i64 8, ptr %11) #7
  call void @llvm.lifetime.end.p0(i64 8, ptr %10) #7
  call void @llvm.lifetime.end.p0(i64 8, ptr %9) #7
  call void @llvm.lifetime.end.p0(i64 8, ptr %8) #7
  %83 = load i32, ptr %4, align 4
  ret i32 %83
}