; Function Attrs: nounwind uwtable
define range(i32 -1, 1) i32 @H5IMget_npalettes(i64 noundef %0, ptr noundef %1, ptr noundef writeonly captures(none) %2) local_unnamed_addr #0 {
  %4 = icmp eq ptr %1, null
  br i1 %4, label %39, label %5

5:                                                ; preds = %3
  store i64 0, ptr %2, align 8, !tbaa !3
  %6 = tail call i64 @H5Dopen2(i64 noundef %0, ptr noundef nonnull %1, i64 noundef 0) #8
  %7 = icmp slt i64 %6, 0
  br i1 %7, label %39, label %8

8:                                                ; preds = %5
  %9 = tail call i32 @H5Aiterate2(i64 noundef %6, i32 noundef 0, i32 noundef 0, ptr noundef null, ptr noundef nonnull @find_palette, ptr noundef null) #8
  %10 = icmp eq i32 %9, 1
  br i1 %10, label %11, label %35

11:                                               ; preds = %8
  %12 = tail call i64 @H5Aopen(i64 noundef %6, ptr noundef nonnull @.str.10, i64 noundef 0) #8
  %13 = icmp slt i64 %12, 0
  br i1 %13, label %37, label %14

14:                                               ; preds = %11
  %15 = tail call i64 @H5Aget_type(i64 noundef %12) #8
  %16 = icmp slt i64 %15, 0
  br i1 %16, label %37, label %17

17:                                               ; preds = %14
  %18 = tail call i32 @H5Tget_class(i64 noundef %15) #8
  %19 = icmp slt i32 %18, 0
  br i1 %19, label %37, label %20

20:                                               ; preds = %17
  %21 = icmp eq i32 %18, 7
  br i1 %21, label %22, label %29

22:                                               ; preds = %20
  %23 = tail call i64 @H5Aget_space(i64 noundef %12) #8
  %24 = icmp slt i64 %23, 0
  br i1 %24, label %37, label %25

25:                                               ; preds = %22
  %26 = tail call i64 @H5Sget_simple_extent_npoints(i64 noundef %23) #8
  store i64 %26, ptr %2, align 8, !tbaa !3
  %27 = tail call i32 @H5Sclose(i64 noundef %23) #8
  %28 = icmp slt i32 %27, 0
  br i1 %28, label %37, label %29

29:                                               ; preds = %25, %20
  %30 = tail call i32 @H5Tclose(i64 noundef %15) #8
  %31 = icmp slt i32 %30, 0
  br i1 %31, label %37, label %32

32:                                               ; preds = %29
  %33 = tail call i32 @H5Aclose(i64 noundef %12) #8
  %34 = icmp slt i32 %33, 0
  br i1 %34, label %37, label %35

35:                                               ; preds = %32, %8
  %36 = tail call i32 @H5Dclose(i64 noundef %6) #8
  %.lobit = ashr i32 %36, 31
  br label %39

37:                                               ; preds = %32, %29, %25, %22, %17, %14, %11
  %38 = tail call i32 @H5Dclose(i64 noundef %6) #8
  br label %39

39:                                               ; preds = %35, %5, %3, %37
  %.0 = phi i32 [ -1, %37 ], [ -1, %3 ], [ -1, %5 ], [ %.lobit, %35 ]
  ret i32 %.0
}